
ECE484_FinalProject.elf:     file format elf32-avr

Sections:
Idx Name          Size      VMA       LMA       File off  Algn
  0 .data         00000060  00800100  00000956  000009ea  2**0
                  CONTENTS, ALLOC, LOAD, DATA
  1 .text         00000956  00000000  00000000  00000094  2**1
                  CONTENTS, ALLOC, LOAD, READONLY, CODE
  2 .bss          00000017  00800160  00800160  00000a4a  2**0
                  ALLOC
  3 .comment      00000030  00000000  00000000  00000a4a  2**0
                  CONTENTS, READONLY
  4 .note.gnu.avr.deviceinfo 00000040  00000000  00000000  00000a7c  2**2
                  CONTENTS, READONLY
  5 .debug_aranges 00000078  00000000  00000000  00000abc  2**0
                  CONTENTS, READONLY, DEBUGGING
  6 .debug_info   0000140d  00000000  00000000  00000b34  2**0
                  CONTENTS, READONLY, DEBUGGING
  7 .debug_abbrev 00000835  00000000  00000000  00001f41  2**0
                  CONTENTS, READONLY, DEBUGGING
  8 .debug_line   000008ca  00000000  00000000  00002776  2**0
                  CONTENTS, READONLY, DEBUGGING
  9 .debug_frame  000001c8  00000000  00000000  00003040  2**2
                  CONTENTS, READONLY, DEBUGGING
 10 .debug_str    00000675  00000000  00000000  00003208  2**0
                  CONTENTS, READONLY, DEBUGGING
 11 .debug_loc    000007a0  00000000  00000000  0000387d  2**0
                  CONTENTS, READONLY, DEBUGGING
 12 .debug_ranges 00000080  00000000  00000000  0000401d  2**0
                  CONTENTS, READONLY, DEBUGGING

Disassembly of section .text:

00000000 <__vectors>:
   0:	0c 94 40 00 	jmp	0x80	; 0x80 <__ctors_end>
   4:	0c 94 5d 00 	jmp	0xba	; 0xba <__bad_interrupt>
   8:	0c 94 ad 03 	jmp	0x75a	; 0x75a <__vector_2>
   c:	0c 94 5d 00 	jmp	0xba	; 0xba <__bad_interrupt>
  10:	0c 94 5d 00 	jmp	0xba	; 0xba <__bad_interrupt>
  14:	0c 94 5d 00 	jmp	0xba	; 0xba <__bad_interrupt>
  18:	0c 94 5d 00 	jmp	0xba	; 0xba <__bad_interrupt>
  1c:	0c 94 5d 00 	jmp	0xba	; 0xba <__bad_interrupt>
  20:	0c 94 5d 00 	jmp	0xba	; 0xba <__bad_interrupt>
  24:	0c 94 5d 00 	jmp	0xba	; 0xba <__bad_interrupt>
  28:	0c 94 5d 00 	jmp	0xba	; 0xba <__bad_interrupt>
  2c:	0c 94 85 03 	jmp	0x70a	; 0x70a <__vector_11>
  30:	0c 94 5d 00 	jmp	0xba	; 0xba <__bad_interrupt>
  34:	0c 94 5d 00 	jmp	0xba	; 0xba <__bad_interrupt>
  38:	0c 94 5d 00 	jmp	0xba	; 0xba <__bad_interrupt>
  3c:	0c 94 5d 00 	jmp	0xba	; 0xba <__bad_interrupt>
  40:	0c 94 5d 00 	jmp	0xba	; 0xba <__bad_interrupt>
  44:	0c 94 5d 00 	jmp	0xba	; 0xba <__bad_interrupt>
  48:	0c 94 cf 03 	jmp	0x79e	; 0x79e <__vector_18>
  4c:	0c 94 5d 00 	jmp	0xba	; 0xba <__bad_interrupt>
  50:	0c 94 c0 03 	jmp	0x780	; 0x780 <__vector_20>
  54:	0c 94 5d 00 	jmp	0xba	; 0xba <__bad_interrupt>
  58:	0c 94 5d 00 	jmp	0xba	; 0xba <__bad_interrupt>
  5c:	0c 94 5d 00 	jmp	0xba	; 0xba <__bad_interrupt>
  60:	0c 94 5d 00 	jmp	0xba	; 0xba <__bad_interrupt>
  64:	0c 94 5d 00 	jmp	0xba	; 0xba <__bad_interrupt>
  68:	8d 01       	movw	r16, r26
  6a:	ac 01       	movw	r20, r24
  6c:	d2 01       	movw	r26, r4
  6e:	f8 01       	movw	r30, r16
  70:	0c 02       	muls	r16, r28
  72:	75 02       	muls	r23, r21
  74:	9d 02       	muls	r25, r29
  76:	bd 02       	muls	r27, r29
  78:	e7 02       	muls	r30, r23
  7a:	11 03       	mulsu	r17, r17
  7c:	31 03       	mulsu	r19, r17
  7e:	3b 03       	fmul	r19, r19

00000080 <__ctors_end>:
  80:	11 24       	eor	r1, r1
  82:	1f be       	out	0x3f, r1	; 63
  84:	cf ef       	ldi	r28, 0xFF	; 255
  86:	d8 e0       	ldi	r29, 0x08	; 8
  88:	de bf       	out	0x3e, r29	; 62
  8a:	cd bf       	out	0x3d, r28	; 61

0000008c <__do_copy_data>:
  8c:	11 e0       	ldi	r17, 0x01	; 1
  8e:	a0 e0       	ldi	r26, 0x00	; 0
  90:	b1 e0       	ldi	r27, 0x01	; 1
  92:	e6 e5       	ldi	r30, 0x56	; 86
  94:	f9 e0       	ldi	r31, 0x09	; 9
  96:	02 c0       	rjmp	.+4      	; 0x9c <__do_copy_data+0x10>
  98:	05 90       	lpm	r0, Z+
  9a:	0d 92       	st	X+, r0
  9c:	a0 36       	cpi	r26, 0x60	; 96
  9e:	b1 07       	cpc	r27, r17
  a0:	d9 f7       	brne	.-10     	; 0x98 <__do_copy_data+0xc>

000000a2 <__do_clear_bss>:
  a2:	21 e0       	ldi	r18, 0x01	; 1
  a4:	a0 e6       	ldi	r26, 0x60	; 96
  a6:	b1 e0       	ldi	r27, 0x01	; 1
  a8:	01 c0       	rjmp	.+2      	; 0xac <.do_clear_bss_start>

000000aa <.do_clear_bss_loop>:
  aa:	1d 92       	st	X+, r1

000000ac <.do_clear_bss_start>:
  ac:	a7 37       	cpi	r26, 0x77	; 119
  ae:	b2 07       	cpc	r27, r18
  b0:	e1 f7       	brne	.-8      	; 0xaa <.do_clear_bss_loop>
  b2:	0e 94 0a 04 	call	0x814	; 0x814 <main>
  b6:	0c 94 a9 04 	jmp	0x952	; 0x952 <_exit>

000000ba <__bad_interrupt>:
  ba:	0c 94 00 00 	jmp	0	; 0x0 <__vectors>

000000be <_Z16softwareDebounceh>:

 uint8_t softwareDebounce(uint8_t sampleData){
	static uint8_t sample_index= 0; //Index used to store switch samples in array
	uint8_t stable_high = 0xFF; //Initialize temporary stable_high all high
	uint8_t stable_low = 0; //Initialize temporary stable_low all low
	switch_array[sample_index] = sampleData; //Store switch sample from SPI new_data in array
  be:	40 91 60 01 	lds	r20, 0x0160	; 0x800160 <__data_end>
  c2:	e4 2f       	mov	r30, r20
  c4:	f0 e0       	ldi	r31, 0x00	; 0
  c6:	e4 59       	subi	r30, 0x94	; 148
  c8:	fe 4f       	sbci	r31, 0xFE	; 254
  ca:	80 83       	st	Z, r24
	//Loop through all historical switch samples to check for stable highs and lows
	for (uint8_t i=0;i<kBufferLength;i++){
  cc:	80 e0       	ldi	r24, 0x00	; 0
bool blink_red = false;

 uint8_t softwareDebounce(uint8_t sampleData){
	static uint8_t sample_index= 0; //Index used to store switch samples in array
	uint8_t stable_high = 0xFF; //Initialize temporary stable_high all high
	uint8_t stable_low = 0; //Initialize temporary stable_low all low
  ce:	20 e0       	ldi	r18, 0x00	; 0
uint8_t countdown_var = 1;
bool blink_red = false;

 uint8_t softwareDebounce(uint8_t sampleData){
	static uint8_t sample_index= 0; //Index used to store switch samples in array
	uint8_t stable_high = 0xFF; //Initialize temporary stable_high all high
  d0:	9f ef       	ldi	r25, 0xFF	; 255
	uint8_t stable_low = 0; //Initialize temporary stable_low all low
	switch_array[sample_index] = sampleData; //Store switch sample from SPI new_data in array
	//Loop through all historical switch samples to check for stable highs and lows
	for (uint8_t i=0;i<kBufferLength;i++){
  d2:	88 30       	cpi	r24, 0x08	; 8
  d4:	50 f4       	brcc	.+20     	; 0xea <_Z16softwareDebounceh+0x2c>
		//"And" for stable high (all 1's will produce "1" for stable high)
		stable_high &= switch_array[i];
  d6:	e8 2f       	mov	r30, r24
  d8:	f0 e0       	ldi	r31, 0x00	; 0
  da:	e4 59       	subi	r30, 0x94	; 148
  dc:	fe 4f       	sbci	r31, 0xFE	; 254
  de:	30 81       	ld	r19, Z
  e0:	93 23       	and	r25, r19
		//"Or" for stable low (all 0's will produce "0" for stable low)
		stable_low |= switch_array[i];
  e2:	30 81       	ld	r19, Z
  e4:	23 2b       	or	r18, r19
	static uint8_t sample_index= 0; //Index used to store switch samples in array
	uint8_t stable_high = 0xFF; //Initialize temporary stable_high all high
	uint8_t stable_low = 0; //Initialize temporary stable_low all low
	switch_array[sample_index] = sampleData; //Store switch sample from SPI new_data in array
	//Loop through all historical switch samples to check for stable highs and lows
	for (uint8_t i=0;i<kBufferLength;i++){
  e6:	8f 5f       	subi	r24, 0xFF	; 255
  e8:	f4 cf       	rjmp	.-24     	; 0xd2 <_Z16softwareDebounceh+0x14>
		//"And" for stable high (all 1's will produce "1" for stable high)
		stable_high &= switch_array[i];
		//"Or" for stable low (all 0's will produce "0" for stable low)
		stable_low |= switch_array[i];
	}
	rising_edges = (~switch_states)&stable_high;
  ea:	80 91 74 01 	lds	r24, 0x0174	; 0x800174 <switch_states>
  ee:	80 95       	com	r24
  f0:	89 23       	and	r24, r25
  f2:	80 93 76 01 	sts	0x0176, r24	; 0x800176 <rising_edges>
	//Detect Rising Edges
	falling_edges = switch_states&(~stable_low);
  f6:	80 91 74 01 	lds	r24, 0x0174	; 0x800174 <switch_states>
  fa:	32 2f       	mov	r19, r18
  fc:	30 95       	com	r19
  fe:	83 23       	and	r24, r19
 100:	80 93 75 01 	sts	0x0175, r24	; 0x800175 <falling_edges>
	//Detect Falling Edges
	switch_states = stable_high|(switch_states&stable_low);
 104:	80 91 74 01 	lds	r24, 0x0174	; 0x800174 <switch_states>
 108:	28 23       	and	r18, r24
 10a:	92 2b       	or	r25, r18
 10c:	90 93 74 01 	sts	0x0174, r25	; 0x800174 <switch_states>
	//Update switch states
	//Update sample index and wrap if necessary
	if(++sample_index>=kBufferLength)
 110:	81 e0       	ldi	r24, 0x01	; 1
 112:	84 0f       	add	r24, r20
 114:	80 93 60 01 	sts	0x0160, r24	; 0x800160 <__data_end>
 118:	88 30       	cpi	r24, 0x08	; 8
 11a:	10 f0       	brcs	.+4      	; 0x120 <_Z16softwareDebounceh+0x62>
	sample_index = 0;//wrap
 11c:	10 92 60 01 	sts	0x0160, r1	; 0x800160 <__data_end>
	
	return(falling_edges);
 120:	80 91 75 01 	lds	r24, 0x0175	; 0x800175 <falling_edges>
}
 124:	08 95       	ret

00000126 <_Z3TWIhh>:

void TWI(unsigned char address, unsigned char data)
{
	TWCR = TWI_START; //send start condition
 126:	94 ea       	ldi	r25, 0xA4	; 164
 128:	90 93 bc 00 	sts	0x00BC, r25	; 0x8000bc <__TEXT_REGION_LENGTH__+0x7f80bc>
	while(!(TWCR & (1<<TWINT))){} //wait for start condition to transmit
 12c:	90 91 bc 00 	lds	r25, 0x00BC	; 0x8000bc <__TEXT_REGION_LENGTH__+0x7f80bc>
 130:	99 23       	and	r25, r25
 132:	e4 f7       	brge	.-8      	; 0x12c <_Z3TWIhh+0x6>
	TWDR = address; //send address to get device attention
 134:	80 93 bb 00 	sts	0x00BB, r24	; 0x8000bb <__TEXT_REGION_LENGTH__+0x7f80bb>
	TWCR = TWI_SEND; //Set TWINT to send address
 138:	84 e8       	ldi	r24, 0x84	; 132
 13a:	80 93 bc 00 	sts	0x00BC, r24	; 0x8000bc <__TEXT_REGION_LENGTH__+0x7f80bc>
	while(!(TWCR & (1<<TWINT))){} //wait for address to go out
 13e:	80 91 bc 00 	lds	r24, 0x00BC	; 0x8000bc <__TEXT_REGION_LENGTH__+0x7f80bc>
 142:	88 23       	and	r24, r24
 144:	e4 f7       	brge	.-8      	; 0x13e <_Z3TWIhh+0x18>
	TWDR = data; //send data to address
 146:	60 93 bb 00 	sts	0x00BB, r22	; 0x8000bb <__TEXT_REGION_LENGTH__+0x7f80bb>
	TWCR = TWI_SEND; //Set TWINT to send address
 14a:	84 e8       	ldi	r24, 0x84	; 132
 14c:	80 93 bc 00 	sts	0x00BC, r24	; 0x8000bc <__TEXT_REGION_LENGTH__+0x7f80bc>
	while(!(TWCR & (1<<TWINT))){} //wait for data byte to transmit
 150:	80 91 bc 00 	lds	r24, 0x00BC	; 0x8000bc <__TEXT_REGION_LENGTH__+0x7f80bc>
 154:	88 23       	and	r24, r24
 156:	e4 f7       	brge	.-8      	; 0x150 <_Z3TWIhh+0x2a>
	TWCR = TWI_STOP; //finish transaction
 158:	84 e9       	ldi	r24, 0x94	; 148
 15a:	80 93 bc 00 	sts	0x00BC, r24	; 0x8000bc <__TEXT_REGION_LENGTH__+0x7f80bc>
 15e:	08 95       	ret

00000160 <_Z11LCD_Displayh>:
}
void LCD_Display(unsigned char data)
{
 160:	cf 93       	push	r28
 162:	df 93       	push	r29
 164:	c8 2f       	mov	r28, r24
	// Put in character data upper bits while keeping enable bit high
	TWI(LCD_ADDRESS,(data & 0xF0)|LCD_DISABLE|LCD_WRITE|LCD_BL|LCD_RS);
 166:	d8 2f       	mov	r29, r24
 168:	d0 7f       	andi	r29, 0xF0	; 240
 16a:	6d 2f       	mov	r22, r29
 16c:	6d 60       	ori	r22, 0x0D	; 13
 16e:	8e e4       	ldi	r24, 0x4E	; 78
 170:	0e 94 93 00 	call	0x126	; 0x126 <_Z3TWIhh>
	// Pull enable bit low to make LCD display the data
	TWI(LCD_ADDRESS,(data & 0xF0)|LCD_ENABLE|LCD_WRITE|LCD_BL|LCD_RS);
 174:	6d 2f       	mov	r22, r29
 176:	69 60       	ori	r22, 0x09	; 9
 178:	8e e4       	ldi	r24, 0x4E	; 78
 17a:	0e 94 93 00 	call	0x126	; 0x126 <_Z3TWIhh>
	// Put in character data lower bits while keeping enable bit high
	TWI(LCD_ADDRESS,((data<<4) & 0xF0)|LCD_DISABLE|LCD_WRITE|LCD_BL|LCD_RS);
 17e:	80 e1       	ldi	r24, 0x10	; 16
 180:	c8 9f       	mul	r28, r24
 182:	e0 01       	movw	r28, r0
 184:	11 24       	eor	r1, r1
 186:	6c 2f       	mov	r22, r28
 188:	6d 60       	ori	r22, 0x0D	; 13
 18a:	8e e4       	ldi	r24, 0x4E	; 78
 18c:	0e 94 93 00 	call	0x126	; 0x126 <_Z3TWIhh>
	// Pull enable bit low to make LCD display the data
	TWI(LCD_ADDRESS,((data<<4) & 0xF0)|LCD_ENABLE|LCD_WRITE|LCD_BL|LCD_RS);
 190:	6c 2f       	mov	r22, r28
 192:	69 60       	ori	r22, 0x09	; 9
 194:	8e e4       	ldi	r24, 0x4E	; 78
 196:	0e 94 93 00 	call	0x126	; 0x126 <_Z3TWIhh>
}
 19a:	df 91       	pop	r29
 19c:	cf 91       	pop	r28
 19e:	08 95       	ret

000001a0 <_Z11LCD_Commandh>:
void LCD_Command(unsigned char command)
{
 1a0:	cf 93       	push	r28
 1a2:	df 93       	push	r29
 1a4:	c8 2f       	mov	r28, r24
	// Put in command data upper bits while keeping enable bit high
	TWI(LCD_ADDRESS,(command &0xF0)|LCD_DISABLE|LCD_WRITE|LCD_BL);
 1a6:	d8 2f       	mov	r29, r24
 1a8:	d0 7f       	andi	r29, 0xF0	; 240
 1aa:	6d 2f       	mov	r22, r29
 1ac:	6c 60       	ori	r22, 0x0C	; 12
 1ae:	8e e4       	ldi	r24, 0x4E	; 78
 1b0:	0e 94 93 00 	call	0x126	; 0x126 <_Z3TWIhh>
	// Pull enable bit low to make LCD process the command
	TWI(LCD_ADDRESS,(command &0xF0)|LCD_ENABLE|LCD_WRITE|LCD_BL);
 1b4:	6d 2f       	mov	r22, r29
 1b6:	68 60       	ori	r22, 0x08	; 8
 1b8:	8e e4       	ldi	r24, 0x4E	; 78
 1ba:	0e 94 93 00 	call	0x126	; 0x126 <_Z3TWIhh>
	// Put in command data lower bits while keeping enable bit high
	TWI(LCD_ADDRESS,((command<<4) & 0xF0)|LCD_DISABLE|LCD_WRITE|LCD_BL);
 1be:	80 e1       	ldi	r24, 0x10	; 16
 1c0:	c8 9f       	mul	r28, r24
 1c2:	e0 01       	movw	r28, r0
 1c4:	11 24       	eor	r1, r1
 1c6:	6c 2f       	mov	r22, r28
 1c8:	6c 60       	ori	r22, 0x0C	; 12
 1ca:	8e e4       	ldi	r24, 0x4E	; 78
 1cc:	0e 94 93 00 	call	0x126	; 0x126 <_Z3TWIhh>
	// Pull enable bit low to make LCD process the command
	TWI(LCD_ADDRESS,((command<<4) & 0xF0)|LCD_ENABLE|LCD_WRITE|LCD_BL);
 1d0:	6c 2f       	mov	r22, r28
 1d2:	68 60       	ori	r22, 0x08	; 8
 1d4:	8e e4       	ldi	r24, 0x4E	; 78
 1d6:	0e 94 93 00 	call	0x126	; 0x126 <_Z3TWIhh>
}
 1da:	df 91       	pop	r29
 1dc:	cf 91       	pop	r28
 1de:	08 95       	ret

000001e0 <_Z8dispTexthbPKc>:
		LCD_Display(text[i]);
	}
}
*/

void dispText(uint8_t address, bool clear, const char* text) {
 1e0:	0f 93       	push	r16
 1e2:	1f 93       	push	r17
 1e4:	cf 93       	push	r28
 1e6:	c8 2f       	mov	r28, r24
 1e8:	8a 01       	movw	r16, r20
	//set LCD
	if (clear) {
 1ea:	66 23       	and	r22, r22
 1ec:	19 f0       	breq	.+6      	; 0x1f4 <_Z8dispTexthbPKc+0x14>
		LCD_Command(CLEAR_DISPLAY); //clear display
 1ee:	81 e0       	ldi	r24, 0x01	; 1
 1f0:	0e 94 d0 00 	call	0x1a0	; 0x1a0 <_Z11LCD_Commandh>
	#else
		//round up by default
		__ticks_dc = (uint32_t)(ceil(fabs(__tmp)));
	#endif

	__builtin_avr_delay_cycles(__ticks_dc);
 1f4:	8f e3       	ldi	r24, 0x3F	; 63
 1f6:	9f e1       	ldi	r25, 0x1F	; 31
 1f8:	01 97       	sbiw	r24, 0x01	; 1
 1fa:	f1 f7       	brne	.-4      	; 0x1f8 <_Z8dispTexthbPKc+0x18>
 1fc:	00 c0       	rjmp	.+0      	; 0x1fe <_Z8dispTexthbPKc+0x1e>
 1fe:	00 00       	nop
	}
	_delay_ms(2);
	LCD_Command(SET_ADDRESS|address); //set address
 200:	8c 2f       	mov	r24, r28
 202:	80 68       	ori	r24, 0x80	; 128
 204:	0e 94 d0 00 	call	0x1a0	; 0x1a0 <_Z11LCD_Commandh>
	uint8_t i = 0;
 208:	c0 e0       	ldi	r28, 0x00	; 0
	while (text[i] != '\0') {
 20a:	f8 01       	movw	r30, r16
 20c:	ec 0f       	add	r30, r28
 20e:	f1 1d       	adc	r31, r1
 210:	80 81       	ld	r24, Z
 212:	88 23       	and	r24, r24
 214:	21 f0       	breq	.+8      	; 0x21e <_Z8dispTexthbPKc+0x3e>
		LCD_Display(text[i]);
 216:	0e 94 b0 00 	call	0x160	; 0x160 <_Z11LCD_Displayh>
		i++;
 21a:	cf 5f       	subi	r28, 0xFF	; 255
		LCD_Command(CLEAR_DISPLAY); //clear display
	}
	_delay_ms(2);
	LCD_Command(SET_ADDRESS|address); //set address
	uint8_t i = 0;
	while (text[i] != '\0') {
 21c:	f6 cf       	rjmp	.-20     	; 0x20a <_Z8dispTexthbPKc+0x2a>
		LCD_Display(text[i]);
		i++;
	}
}
 21e:	cf 91       	pop	r28
 220:	1f 91       	pop	r17
 222:	0f 91       	pop	r16
 224:	08 95       	ret

00000226 <_Z19stepperStateMachinev>:

void stepperStateMachine(){
	//STATE MACHINE FOR UNL2003 FULL STEP MODE
	switch(stepperState){
 226:	80 91 6b 01 	lds	r24, 0x016B	; 0x80016b <stepperState>
 22a:	81 30       	cpi	r24, 0x01	; 1
 22c:	b9 f0       	breq	.+46     	; 0x25c <_Z19stepperStateMachinev+0x36>
 22e:	1c f4       	brge	.+6      	; 0x236 <_Z19stepperStateMachinev+0x10>
 230:	88 23       	and	r24, r24
 232:	31 f0       	breq	.+12     	; 0x240 <_Z19stepperStateMachinev+0x1a>
 234:	3c c0       	rjmp	.+120    	; 0x2ae <_Z19stepperStateMachinev+0x88>
 236:	82 30       	cpi	r24, 0x02	; 2
 238:	f9 f0       	breq	.+62     	; 0x278 <_Z19stepperStateMachinev+0x52>
 23a:	83 30       	cpi	r24, 0x03	; 3
 23c:	59 f1       	breq	.+86     	; 0x294 <_Z19stepperStateMachinev+0x6e>
 23e:	37 c0       	rjmp	.+110    	; 0x2ae <_Z19stepperStateMachinev+0x88>
		//STEP AB
		case 0: {
			PORTD &= ~((1 << PIND4) | (1 << PIND5) | (1 << PIND6) | (1 << PIND7));
 240:	8b b1       	in	r24, 0x0b	; 11
 242:	8f 70       	andi	r24, 0x0F	; 15
 244:	8b b9       	out	0x0b, r24	; 11
			PORTD |= ((1 << PIND4) | (1 << PIND5) | (0 << PIND6) | (0 << PIND7));
 246:	8b b1       	in	r24, 0x0b	; 11
 248:	80 63       	ori	r24, 0x30	; 48
 24a:	8b b9       	out	0x0b, r24	; 11
			stepperState = stepperState + stepperDirection;
 24c:	90 91 6b 01 	lds	r25, 0x016B	; 0x80016b <stepperState>
 250:	80 91 6a 01 	lds	r24, 0x016A	; 0x80016a <stepperDirection>
 254:	89 0f       	add	r24, r25
 256:	80 93 6b 01 	sts	0x016B, r24	; 0x80016b <stepperState>
			break;
 25a:	29 c0       	rjmp	.+82     	; 0x2ae <_Z19stepperStateMachinev+0x88>
		}
		//STEP BC
		case 1: {
			PORTD &= ~((1 << PIND4) | (1 << PIND5) | (1 << PIND6) | (1 << PIND7));
 25c:	8b b1       	in	r24, 0x0b	; 11
 25e:	8f 70       	andi	r24, 0x0F	; 15
 260:	8b b9       	out	0x0b, r24	; 11
			PORTD |= ((0 << PIND4) | (1 << PIND5) | (1 << PIND6) | (0 << PIND7));
 262:	8b b1       	in	r24, 0x0b	; 11
 264:	80 66       	ori	r24, 0x60	; 96
 266:	8b b9       	out	0x0b, r24	; 11
			stepperState = stepperState + stepperDirection;
 268:	90 91 6b 01 	lds	r25, 0x016B	; 0x80016b <stepperState>
 26c:	80 91 6a 01 	lds	r24, 0x016A	; 0x80016a <stepperDirection>
 270:	89 0f       	add	r24, r25
 272:	80 93 6b 01 	sts	0x016B, r24	; 0x80016b <stepperState>
			break;
 276:	1b c0       	rjmp	.+54     	; 0x2ae <_Z19stepperStateMachinev+0x88>
		}
		//STEP CD
		case 2: {
			PORTD &= ~((1 << PIND4) | (1 << PIND5) | (1 << PIND6) | (1 << PIND7));
 278:	8b b1       	in	r24, 0x0b	; 11
 27a:	8f 70       	andi	r24, 0x0F	; 15
 27c:	8b b9       	out	0x0b, r24	; 11
			PORTD |= ((0 << PIND4) | (0 << PIND5) | (1 << PIND6) | (1 << PIND7));
 27e:	8b b1       	in	r24, 0x0b	; 11
 280:	80 6c       	ori	r24, 0xC0	; 192
 282:	8b b9       	out	0x0b, r24	; 11
			stepperState = stepperState + stepperDirection;
 284:	90 91 6b 01 	lds	r25, 0x016B	; 0x80016b <stepperState>
 288:	80 91 6a 01 	lds	r24, 0x016A	; 0x80016a <stepperDirection>
 28c:	89 0f       	add	r24, r25
 28e:	80 93 6b 01 	sts	0x016B, r24	; 0x80016b <stepperState>
			break;
 292:	0d c0       	rjmp	.+26     	; 0x2ae <_Z19stepperStateMachinev+0x88>
		}
		//STEP DA
		case 3: {
			PORTD &= ~((1 << PIND4) | (1 << PIND5) | (1 << PIND6) | (1 << PIND7));
 294:	8b b1       	in	r24, 0x0b	; 11
 296:	8f 70       	andi	r24, 0x0F	; 15
 298:	8b b9       	out	0x0b, r24	; 11
			PORTD |= ((1 << PIND4) | (0 << PIND5) | (0 << PIND6) | (1 << PIND7));
 29a:	8b b1       	in	r24, 0x0b	; 11
 29c:	80 69       	ori	r24, 0x90	; 144
 29e:	8b b9       	out	0x0b, r24	; 11
			stepperState = stepperState + stepperDirection;
 2a0:	90 91 6b 01 	lds	r25, 0x016B	; 0x80016b <stepperState>
 2a4:	80 91 6a 01 	lds	r24, 0x016A	; 0x80016a <stepperDirection>
 2a8:	89 0f       	add	r24, r25
 2aa:	80 93 6b 01 	sts	0x016B, r24	; 0x80016b <stepperState>
			break;
		}
	}
	//CHECK STEPPER STATE OVERFLOW
	if (stepperState > 3) {
 2ae:	80 91 6b 01 	lds	r24, 0x016B	; 0x80016b <stepperState>
 2b2:	84 30       	cpi	r24, 0x04	; 4
 2b4:	1c f0       	brlt	.+6      	; 0x2bc <_Z19stepperStateMachinev+0x96>
		stepperState = 0;
 2b6:	10 92 6b 01 	sts	0x016B, r1	; 0x80016b <stepperState>
 2ba:	08 95       	ret
	}
	else if (stepperState < 0) {
 2bc:	88 23       	and	r24, r24
 2be:	1c f4       	brge	.+6      	; 0x2c6 <_Z19stepperStateMachinev+0xa0>
		stepperState = 3;
 2c0:	83 e0       	ldi	r24, 0x03	; 3
 2c2:	80 93 6b 01 	sts	0x016B, r24	; 0x80016b <stepperState>
 2c6:	08 95       	ret

000002c8 <_Z12stateMachineh>:
enum State state = DISSARMED;
enum State previous_state;
bool first;
bool first_override;

void stateMachine(uint8_t falling) {
 2c8:	0f 93       	push	r16
 2ca:	1f 93       	push	r17
 2cc:	cf 93       	push	r28
 2ce:	df 93       	push	r29
 2d0:	00 d0       	rcall	.+0      	; 0x2d2 <_Z12stateMachineh+0xa>
 2d2:	1f 92       	push	r1
 2d4:	cd b7       	in	r28, 0x3d	; 61
 2d6:	de b7       	in	r29, 0x3e	; 62
	first = !(previous_state == state);
 2d8:	e0 91 64 01 	lds	r30, 0x0164	; 0x800164 <state>
 2dc:	91 e0       	ldi	r25, 0x01	; 1
 2de:	20 91 63 01 	lds	r18, 0x0163	; 0x800163 <previous_state>
 2e2:	2e 13       	cpse	r18, r30
 2e4:	01 c0       	rjmp	.+2      	; 0x2e8 <_Z12stateMachineh+0x20>
 2e6:	90 e0       	ldi	r25, 0x00	; 0
 2e8:	90 93 62 01 	sts	0x0162, r25	; 0x800162 <first>
	if (first_override) {
 2ec:	90 91 61 01 	lds	r25, 0x0161	; 0x800161 <first_override>
 2f0:	99 23       	and	r25, r25
 2f2:	29 f0       	breq	.+10     	; 0x2fe <_Z12stateMachineh+0x36>
		first = true;
 2f4:	91 e0       	ldi	r25, 0x01	; 1
 2f6:	90 93 62 01 	sts	0x0162, r25	; 0x800162 <first>
		first_override = false;
 2fa:	10 92 61 01 	sts	0x0161, r1	; 0x800161 <first_override>
	}
	previous_state = state;
 2fe:	e0 93 63 01 	sts	0x0163, r30	; 0x800163 <previous_state>
	switch(state) {
 302:	4e 2f       	mov	r20, r30
 304:	50 e0       	ldi	r21, 0x00	; 0
 306:	4c 30       	cpi	r20, 0x0C	; 12
 308:	51 05       	cpc	r21, r1
 30a:	08 f0       	brcs	.+2      	; 0x30e <_Z12stateMachineh+0x46>
 30c:	da c1       	rjmp	.+948    	; 0x6c2 <__EEPROM_REGION_LENGTH__+0x2c2>
 30e:	18 2f       	mov	r17, r24
 310:	fa 01       	movw	r30, r20
 312:	ec 5c       	subi	r30, 0xCC	; 204
 314:	ff 4f       	sbci	r31, 0xFF	; 255
 316:	0c 94 a3 04 	jmp	0x946	; 0x946 <__tablejump2__>
		case DISSARMED: {
			if (first) {
 31a:	80 91 62 01 	lds	r24, 0x0162	; 0x800162 <first>
 31e:	88 23       	and	r24, r24
 320:	61 f0       	breq	.+24     	; 0x33a <_Z12stateMachineh+0x72>
				dispText(0x00, true, "DISSARMED");
 322:	41 e0       	ldi	r20, 0x01	; 1
 324:	51 e0       	ldi	r21, 0x01	; 1
 326:	61 e0       	ldi	r22, 0x01	; 1
 328:	80 e0       	ldi	r24, 0x00	; 0
 32a:	0e 94 f0 00 	call	0x1e0	; 0x1e0 <_Z8dispTexthbPKc>
				dispText(0x40, false, "CODE:    ");
 32e:	4b e0       	ldi	r20, 0x0B	; 11
 330:	51 e0       	ldi	r21, 0x01	; 1
 332:	60 e0       	ldi	r22, 0x00	; 0
 334:	80 e4       	ldi	r24, 0x40	; 64
 336:	0e 94 f0 00 	call	0x1e0	; 0x1e0 <_Z8dispTexthbPKc>
			}

			if (falling & (1 << PINB0)) {
 33a:	10 ff       	sbrs	r17, 0
 33c:	0a c0       	rjmp	.+20     	; 0x352 <_Z12stateMachineh+0x8a>
				dispText(0x46, false, "A");
 33e:	4b e1       	ldi	r20, 0x1B	; 27
 340:	51 e0       	ldi	r21, 0x01	; 1
 342:	60 e0       	ldi	r22, 0x00	; 0
 344:	86 e4       	ldi	r24, 0x46	; 70
 346:	0e 94 f0 00 	call	0x1e0	; 0x1e0 <_Z8dispTexthbPKc>
				state = PASS_A;
 34a:	81 e0       	ldi	r24, 0x01	; 1
 34c:	80 93 64 01 	sts	0x0164, r24	; 0x800164 <state>
 350:	b8 c1       	rjmp	.+880    	; 0x6c2 <__EEPROM_REGION_LENGTH__+0x2c2>
			} else {
				state = DISSARMED;  // just wait
 352:	10 92 64 01 	sts	0x0164, r1	; 0x800164 <state>
 356:	b5 c1       	rjmp	.+874    	; 0x6c2 <__EEPROM_REGION_LENGTH__+0x2c2>
			}
			break;
		}
		case PASS_A: {
			if (first) {
 358:	80 91 62 01 	lds	r24, 0x0162	; 0x800162 <first>
 35c:	88 23       	and	r24, r24
 35e:	61 f0       	breq	.+24     	; 0x378 <_Z12stateMachineh+0xb0>
				dispText(0x00, true, "DISSARMED");
 360:	41 e0       	ldi	r20, 0x01	; 1
 362:	51 e0       	ldi	r21, 0x01	; 1
 364:	61 e0       	ldi	r22, 0x01	; 1
 366:	80 e0       	ldi	r24, 0x00	; 0
 368:	0e 94 f0 00 	call	0x1e0	; 0x1e0 <_Z8dispTexthbPKc>
				dispText(0x40, false, "CODE: A");
 36c:	45 e1       	ldi	r20, 0x15	; 21
 36e:	51 e0       	ldi	r21, 0x01	; 1
 370:	60 e0       	ldi	r22, 0x00	; 0
 372:	80 e4       	ldi	r24, 0x40	; 64
 374:	0e 94 f0 00 	call	0x1e0	; 0x1e0 <_Z8dispTexthbPKc>
			}
			
			if (falling & (1 << PINB1)) {
 378:	11 ff       	sbrs	r17, 1
 37a:	0a c0       	rjmp	.+20     	; 0x390 <_Z12stateMachineh+0xc8>
				dispText(0x47, false, "B");
 37c:	44 e2       	ldi	r20, 0x24	; 36
 37e:	51 e0       	ldi	r21, 0x01	; 1
 380:	60 e0       	ldi	r22, 0x00	; 0
 382:	87 e4       	ldi	r24, 0x47	; 71
 384:	0e 94 f0 00 	call	0x1e0	; 0x1e0 <_Z8dispTexthbPKc>
				state = PASS_AB;
 388:	82 e0       	ldi	r24, 0x02	; 2
 38a:	80 93 64 01 	sts	0x0164, r24	; 0x800164 <state>
 38e:	99 c1       	rjmp	.+818    	; 0x6c2 <__EEPROM_REGION_LENGTH__+0x2c2>
			} else if (falling & ((1 << PINB0) | (1 << PINB2))) {
 390:	81 2f       	mov	r24, r17
 392:	85 70       	andi	r24, 0x05	; 5
 394:	19 f0       	breq	.+6      	; 0x39c <_Z12stateMachineh+0xd4>
				state = DISSARMED;
 396:	10 92 64 01 	sts	0x0164, r1	; 0x800164 <state>
 39a:	93 c1       	rjmp	.+806    	; 0x6c2 <__EEPROM_REGION_LENGTH__+0x2c2>
			} else {
				state = PASS_A;
 39c:	81 e0       	ldi	r24, 0x01	; 1
 39e:	80 93 64 01 	sts	0x0164, r24	; 0x800164 <state>
 3a2:	8f c1       	rjmp	.+798    	; 0x6c2 <__EEPROM_REGION_LENGTH__+0x2c2>
			}
			break;
		}
		case PASS_AB: {
			if (first) {
 3a4:	80 91 62 01 	lds	r24, 0x0162	; 0x800162 <first>
 3a8:	88 23       	and	r24, r24
 3aa:	61 f0       	breq	.+24     	; 0x3c4 <_Z12stateMachineh+0xfc>
				dispText(0x00, true, "DISSARMED");
 3ac:	41 e0       	ldi	r20, 0x01	; 1
 3ae:	51 e0       	ldi	r21, 0x01	; 1
 3b0:	61 e0       	ldi	r22, 0x01	; 1
 3b2:	80 e0       	ldi	r24, 0x00	; 0
 3b4:	0e 94 f0 00 	call	0x1e0	; 0x1e0 <_Z8dispTexthbPKc>
				dispText(0x40, false, "CODE: AB");
 3b8:	4d e1       	ldi	r20, 0x1D	; 29
 3ba:	51 e0       	ldi	r21, 0x01	; 1
 3bc:	60 e0       	ldi	r22, 0x00	; 0
 3be:	80 e4       	ldi	r24, 0x40	; 64
 3c0:	0e 94 f0 00 	call	0x1e0	; 0x1e0 <_Z8dispTexthbPKc>
			}

			if (falling & (1 << PINB2)) {
 3c4:	12 ff       	sbrs	r17, 2
 3c6:	0a c0       	rjmp	.+20     	; 0x3dc <_Z12stateMachineh+0x114>
				dispText(0x48, false, "C");
 3c8:	4a e3       	ldi	r20, 0x3A	; 58
 3ca:	51 e0       	ldi	r21, 0x01	; 1
 3cc:	60 e0       	ldi	r22, 0x00	; 0
 3ce:	88 e4       	ldi	r24, 0x48	; 72
 3d0:	0e 94 f0 00 	call	0x1e0	; 0x1e0 <_Z8dispTexthbPKc>
				state = PASS_ABC;
 3d4:	83 e0       	ldi	r24, 0x03	; 3
 3d6:	80 93 64 01 	sts	0x0164, r24	; 0x800164 <state>
 3da:	73 c1       	rjmp	.+742    	; 0x6c2 <__EEPROM_REGION_LENGTH__+0x2c2>
			} else if (falling & ((1 << PINB0) | (1 << PINB1))) {
 3dc:	81 2f       	mov	r24, r17
 3de:	83 70       	andi	r24, 0x03	; 3
 3e0:	19 f0       	breq	.+6      	; 0x3e8 <_Z12stateMachineh+0x120>
				state = DISSARMED;
 3e2:	10 92 64 01 	sts	0x0164, r1	; 0x800164 <state>
 3e6:	6d c1       	rjmp	.+730    	; 0x6c2 <__EEPROM_REGION_LENGTH__+0x2c2>
			} else {
				state = PASS_AB;
 3e8:	82 e0       	ldi	r24, 0x02	; 2
 3ea:	80 93 64 01 	sts	0x0164, r24	; 0x800164 <state>
 3ee:	69 c1       	rjmp	.+722    	; 0x6c2 <__EEPROM_REGION_LENGTH__+0x2c2>
			}
			break;
		}
		case PASS_ABC: {
			if (first) {
 3f0:	80 91 62 01 	lds	r24, 0x0162	; 0x800162 <first>
 3f4:	88 23       	and	r24, r24
 3f6:	61 f0       	breq	.+24     	; 0x410 <__EEPROM_REGION_LENGTH__+0x10>
				dispText(0x00, true, "DISSARMED");
 3f8:	41 e0       	ldi	r20, 0x01	; 1
 3fa:	51 e0       	ldi	r21, 0x01	; 1
 3fc:	61 e0       	ldi	r22, 0x01	; 1
 3fe:	80 e0       	ldi	r24, 0x00	; 0
 400:	0e 94 f0 00 	call	0x1e0	; 0x1e0 <_Z8dispTexthbPKc>
				dispText(0x40, false, "CODE: ABC Cd:");
 404:	46 e2       	ldi	r20, 0x26	; 38
 406:	51 e0       	ldi	r21, 0x01	; 1
 408:	60 e0       	ldi	r22, 0x00	; 0
 40a:	80 e4       	ldi	r24, 0x40	; 64
 40c:	0e 94 f0 00 	call	0x1e0	; 0x1e0 <_Z8dispTexthbPKc>
			}
			state = COUNTDOWN;
 410:	84 e0       	ldi	r24, 0x04	; 4
 412:	80 93 64 01 	sts	0x0164, r24	; 0x800164 <state>
			break;
 416:	55 c1       	rjmp	.+682    	; 0x6c2 <__EEPROM_REGION_LENGTH__+0x2c2>
		}
		case COUNTDOWN: {
			if (first) {
 418:	80 91 62 01 	lds	r24, 0x0162	; 0x800162 <first>
 41c:	88 23       	and	r24, r24
 41e:	61 f0       	breq	.+24     	; 0x438 <__EEPROM_REGION_LENGTH__+0x38>
				dispText(0x00, true, "DISSARMED");
 420:	41 e0       	ldi	r20, 0x01	; 1
 422:	51 e0       	ldi	r21, 0x01	; 1
 424:	61 e0       	ldi	r22, 0x01	; 1
 426:	80 e0       	ldi	r24, 0x00	; 0
 428:	0e 94 f0 00 	call	0x1e0	; 0x1e0 <_Z8dispTexthbPKc>
				dispText(0x40, false, "CODE: ABC Cd:");
 42c:	46 e2       	ldi	r20, 0x26	; 38
 42e:	51 e0       	ldi	r21, 0x01	; 1
 430:	60 e0       	ldi	r22, 0x00	; 0
 432:	80 e4       	ldi	r24, 0x40	; 64
 434:	0e 94 f0 00 	call	0x1e0	; 0x1e0 <_Z8dispTexthbPKc>
			}
			if (count >= 1000) {
 438:	80 91 66 01 	lds	r24, 0x0166	; 0x800166 <count>
 43c:	90 91 67 01 	lds	r25, 0x0167	; 0x800167 <count+0x1>
 440:	88 3e       	cpi	r24, 0xE8	; 232
 442:	23 e0       	ldi	r18, 0x03	; 3
 444:	92 07       	cpc	r25, r18
 446:	e8 f1       	brcs	.+122    	; 0x4c2 <__EEPROM_REGION_LENGTH__+0xc2>
				ones = countdown_var % 10;
 448:	40 91 00 01 	lds	r20, 0x0100	; 0x800100 <__DATA_REGION_ORIGIN__>
 44c:	8d ec       	ldi	r24, 0xCD	; 205
 44e:	48 9f       	mul	r20, r24
 450:	21 2d       	mov	r18, r1
 452:	11 24       	eor	r1, r1
 454:	92 2f       	mov	r25, r18
 456:	96 95       	lsr	r25
 458:	96 95       	lsr	r25
 45a:	96 95       	lsr	r25
 45c:	99 0f       	add	r25, r25
 45e:	39 2f       	mov	r19, r25
 460:	33 0f       	add	r19, r19
 462:	33 0f       	add	r19, r19
 464:	93 0f       	add	r25, r19
 466:	49 1b       	sub	r20, r25
 468:	94 2f       	mov	r25, r20
 46a:	40 93 69 01 	sts	0x0169, r20	; 0x800169 <ones>
				tens = (countdown_var / 10) % 10;
 46e:	26 95       	lsr	r18
 470:	26 95       	lsr	r18
 472:	26 95       	lsr	r18
 474:	28 9f       	mul	r18, r24
 476:	81 2d       	mov	r24, r1
 478:	11 24       	eor	r1, r1
 47a:	86 95       	lsr	r24
 47c:	86 95       	lsr	r24
 47e:	86 95       	lsr	r24
 480:	88 0f       	add	r24, r24
 482:	38 2f       	mov	r19, r24
 484:	33 0f       	add	r19, r19
 486:	33 0f       	add	r19, r19
 488:	83 0f       	add	r24, r19
 48a:	28 1b       	sub	r18, r24
 48c:	82 2f       	mov	r24, r18
 48e:	20 93 68 01 	sts	0x0168, r18	; 0x800168 <tens>
				char text[] = {char(0b00110000 | tens), char(0b00110000 | ones), '\0'};
 492:	19 82       	std	Y+1, r1	; 0x01
 494:	1a 82       	std	Y+2, r1	; 0x02
 496:	1b 82       	std	Y+3, r1	; 0x03
 498:	80 63       	ori	r24, 0x30	; 48
 49a:	89 83       	std	Y+1, r24	; 0x01
 49c:	90 63       	ori	r25, 0x30	; 48
 49e:	9a 83       	std	Y+2, r25	; 0x02
				dispText(0x4E, false, text);		
 4a0:	ae 01       	movw	r20, r28
 4a2:	4f 5f       	subi	r20, 0xFF	; 255
 4a4:	5f 4f       	sbci	r21, 0xFF	; 255
 4a6:	60 e0       	ldi	r22, 0x00	; 0
 4a8:	8e e4       	ldi	r24, 0x4E	; 78
 4aa:	0e 94 f0 00 	call	0x1e0	; 0x1e0 <_Z8dispTexthbPKc>
				count = 0;
 4ae:	10 92 67 01 	sts	0x0167, r1	; 0x800167 <count+0x1>
 4b2:	10 92 66 01 	sts	0x0166, r1	; 0x800166 <count>
				countdown_var++;
 4b6:	80 91 00 01 	lds	r24, 0x0100	; 0x800100 <__DATA_REGION_ORIGIN__>
 4ba:	8f 5f       	subi	r24, 0xFF	; 255
 4bc:	80 93 00 01 	sts	0x0100, r24	; 0x800100 <__DATA_REGION_ORIGIN__>
 4c0:	05 c0       	rjmp	.+10     	; 0x4cc <__EEPROM_REGION_LENGTH__+0xcc>
			} else {
				count++;
 4c2:	01 96       	adiw	r24, 0x01	; 1
 4c4:	90 93 67 01 	sts	0x0167, r25	; 0x800167 <count+0x1>
 4c8:	80 93 66 01 	sts	0x0166, r24	; 0x800166 <count>
			}
			
			if (countdown_var >= 11) {
 4cc:	80 91 00 01 	lds	r24, 0x0100	; 0x800100 <__DATA_REGION_ORIGIN__>
 4d0:	8b 30       	cpi	r24, 0x0B	; 11
 4d2:	08 f4       	brcc	.+2      	; 0x4d6 <__EEPROM_REGION_LENGTH__+0xd6>
 4d4:	f6 c0       	rjmp	.+492    	; 0x6c2 <__EEPROM_REGION_LENGTH__+0x2c2>
				countdown_var = 0;
 4d6:	10 92 00 01 	sts	0x0100, r1	; 0x800100 <__DATA_REGION_ORIGIN__>
				count = 0;
 4da:	10 92 67 01 	sts	0x0167, r1	; 0x800167 <count+0x1>
 4de:	10 92 66 01 	sts	0x0166, r1	; 0x800166 <count>
				state = LOCK;
 4e2:	85 e0       	ldi	r24, 0x05	; 5
 4e4:	80 93 64 01 	sts	0x0164, r24	; 0x800164 <state>
 4e8:	ec c0       	rjmp	.+472    	; 0x6c2 <__EEPROM_REGION_LENGTH__+0x2c2>
			}
			break;
		}
		case LOCK: {
			dispText(0x00, first, "LOCKING...");
 4ea:	41 e5       	ldi	r20, 0x51	; 81
 4ec:	51 e0       	ldi	r21, 0x01	; 1
 4ee:	60 91 62 01 	lds	r22, 0x0162	; 0x800162 <first>
 4f2:	80 e0       	ldi	r24, 0x00	; 0
 4f4:	0e 94 f0 00 	call	0x1e0	; 0x1e0 <_Z8dispTexthbPKc>
			stepperDirection = 1;
 4f8:	81 e0       	ldi	r24, 0x01	; 1
 4fa:	80 93 6a 01 	sts	0x016A, r24	; 0x80016a <stepperDirection>
			for (uint16_t i = 0; i < 512; i++) {
 4fe:	00 e0       	ldi	r16, 0x00	; 0
 500:	10 e0       	ldi	r17, 0x00	; 0
 502:	01 15       	cp	r16, r1
 504:	82 e0       	ldi	r24, 0x02	; 2
 506:	18 07       	cpc	r17, r24
 508:	58 f4       	brcc	.+22     	; 0x520 <__EEPROM_REGION_LENGTH__+0x120>
 50a:	8f e3       	ldi	r24, 0x3F	; 63
 50c:	9c e9       	ldi	r25, 0x9C	; 156
 50e:	01 97       	sbiw	r24, 0x01	; 1
 510:	f1 f7       	brne	.-4      	; 0x50e <__EEPROM_REGION_LENGTH__+0x10e>
 512:	00 c0       	rjmp	.+0      	; 0x514 <__EEPROM_REGION_LENGTH__+0x114>
 514:	00 00       	nop
				_delay_ms(10);
				stepperStateMachine();
 516:	0e 94 13 01 	call	0x226	; 0x226 <_Z19stepperStateMachinev>
			break;
		}
		case LOCK: {
			dispText(0x00, first, "LOCKING...");
			stepperDirection = 1;
			for (uint16_t i = 0; i < 512; i++) {
 51a:	0f 5f       	subi	r16, 0xFF	; 255
 51c:	1f 4f       	sbci	r17, 0xFF	; 255
 51e:	f1 cf       	rjmp	.-30     	; 0x502 <__EEPROM_REGION_LENGTH__+0x102>
				_delay_ms(10);
				stepperStateMachine();
			}
			PORTD &= ~((1 << PIND4) | (1 << PIND5) | (1 << PIND6) | (1 << PIND7));
 520:	8b b1       	in	r24, 0x0b	; 11
 522:	8f 70       	andi	r24, 0x0F	; 15
 524:	8b b9       	out	0x0b, r24	; 11
			PORTB |= (1 << PINB4);
 526:	85 b1       	in	r24, 0x05	; 5
 528:	80 61       	ori	r24, 0x10	; 16
 52a:	85 b9       	out	0x05, r24	; 5
			PORTB &= ~(1 << PINB5);
 52c:	85 b1       	in	r24, 0x05	; 5
 52e:	8f 7d       	andi	r24, 0xDF	; 223
 530:	85 b9       	out	0x05, r24	; 5
			state = ARMED;
 532:	86 e0       	ldi	r24, 0x06	; 6
 534:	80 93 64 01 	sts	0x0164, r24	; 0x800164 <state>
			break;
 538:	c4 c0       	rjmp	.+392    	; 0x6c2 <__EEPROM_REGION_LENGTH__+0x2c2>
		}
		case ARMED: {
			if (first) {
 53a:	80 91 62 01 	lds	r24, 0x0162	; 0x800162 <first>
 53e:	88 23       	and	r24, r24
 540:	61 f0       	breq	.+24     	; 0x55a <__EEPROM_REGION_LENGTH__+0x15a>
				dispText(0x00, true, "ARMED");
 542:	45 e0       	ldi	r20, 0x05	; 5
 544:	51 e0       	ldi	r21, 0x01	; 1
 546:	61 e0       	ldi	r22, 0x01	; 1
 548:	80 e0       	ldi	r24, 0x00	; 0
 54a:	0e 94 f0 00 	call	0x1e0	; 0x1e0 <_Z8dispTexthbPKc>
				dispText(0x40, false, "CODE:    ");
 54e:	4b e0       	ldi	r20, 0x0B	; 11
 550:	51 e0       	ldi	r21, 0x01	; 1
 552:	60 e0       	ldi	r22, 0x00	; 0
 554:	80 e4       	ldi	r24, 0x40	; 64
 556:	0e 94 f0 00 	call	0x1e0	; 0x1e0 <_Z8dispTexthbPKc>
			}
			
			if (falling & (1 << PINB2)) {
 55a:	12 ff       	sbrs	r17, 2
 55c:	0a c0       	rjmp	.+20     	; 0x572 <__EEPROM_REGION_LENGTH__+0x172>
				dispText(0x46, false, "C");		
 55e:	4a e3       	ldi	r20, 0x3A	; 58
 560:	51 e0       	ldi	r21, 0x01	; 1
 562:	60 e0       	ldi	r22, 0x00	; 0
 564:	86 e4       	ldi	r24, 0x46	; 70
 566:	0e 94 f0 00 	call	0x1e0	; 0x1e0 <_Z8dispTexthbPKc>
				state = PASS_C;
 56a:	87 e0       	ldi	r24, 0x07	; 7
 56c:	80 93 64 01 	sts	0x0164, r24	; 0x800164 <state>
 570:	a8 c0       	rjmp	.+336    	; 0x6c2 <__EEPROM_REGION_LENGTH__+0x2c2>
			} else {			
				state = ARMED;
 572:	86 e0       	ldi	r24, 0x06	; 6
 574:	80 93 64 01 	sts	0x0164, r24	; 0x800164 <state>
 578:	a4 c0       	rjmp	.+328    	; 0x6c2 <__EEPROM_REGION_LENGTH__+0x2c2>
			}
			break;
		}
		case PASS_C: {
			if (first) {
 57a:	80 91 62 01 	lds	r24, 0x0162	; 0x800162 <first>
 57e:	88 23       	and	r24, r24
 580:	61 f0       	breq	.+24     	; 0x59a <__EEPROM_REGION_LENGTH__+0x19a>
				dispText(0x00, true, "ARMED");
 582:	45 e0       	ldi	r20, 0x05	; 5
 584:	51 e0       	ldi	r21, 0x01	; 1
 586:	61 e0       	ldi	r22, 0x01	; 1
 588:	80 e0       	ldi	r24, 0x00	; 0
 58a:	0e 94 f0 00 	call	0x1e0	; 0x1e0 <_Z8dispTexthbPKc>
				dispText(0x40, false, "CODE: C");
 58e:	44 e3       	ldi	r20, 0x34	; 52
 590:	51 e0       	ldi	r21, 0x01	; 1
 592:	60 e0       	ldi	r22, 0x00	; 0
 594:	80 e4       	ldi	r24, 0x40	; 64
 596:	0e 94 f0 00 	call	0x1e0	; 0x1e0 <_Z8dispTexthbPKc>
			}
			
			if (falling_edges & (1 << PINB1)) {
 59a:	80 91 75 01 	lds	r24, 0x0175	; 0x800175 <falling_edges>
 59e:	81 ff       	sbrs	r24, 1
 5a0:	0a c0       	rjmp	.+20     	; 0x5b6 <__EEPROM_REGION_LENGTH__+0x1b6>
				dispText(0x47, false, "B");	
 5a2:	44 e2       	ldi	r20, 0x24	; 36
 5a4:	51 e0       	ldi	r21, 0x01	; 1
 5a6:	60 e0       	ldi	r22, 0x00	; 0
 5a8:	87 e4       	ldi	r24, 0x47	; 71
 5aa:	0e 94 f0 00 	call	0x1e0	; 0x1e0 <_Z8dispTexthbPKc>
				state = PASS_CB;
 5ae:	88 e0       	ldi	r24, 0x08	; 8
 5b0:	80 93 64 01 	sts	0x0164, r24	; 0x800164 <state>
 5b4:	86 c0       	rjmp	.+268    	; 0x6c2 <__EEPROM_REGION_LENGTH__+0x2c2>
			} else if (falling_edges & ((1 << PINB0) | (1 << PINB2))) {
 5b6:	80 91 75 01 	lds	r24, 0x0175	; 0x800175 <falling_edges>
 5ba:	85 70       	andi	r24, 0x05	; 5
 5bc:	21 f0       	breq	.+8      	; 0x5c6 <__EEPROM_REGION_LENGTH__+0x1c6>
				state = ALARM;
 5be:	8a e0       	ldi	r24, 0x0A	; 10
 5c0:	80 93 64 01 	sts	0x0164, r24	; 0x800164 <state>
 5c4:	7e c0       	rjmp	.+252    	; 0x6c2 <__EEPROM_REGION_LENGTH__+0x2c2>
			} else {
				state = PASS_C;
 5c6:	87 e0       	ldi	r24, 0x07	; 7
 5c8:	80 93 64 01 	sts	0x0164, r24	; 0x800164 <state>
 5cc:	7a c0       	rjmp	.+244    	; 0x6c2 <__EEPROM_REGION_LENGTH__+0x2c2>
			}
			break;
		}
		case PASS_CB: {
			if (first) {
 5ce:	80 91 62 01 	lds	r24, 0x0162	; 0x800162 <first>
 5d2:	88 23       	and	r24, r24
 5d4:	61 f0       	breq	.+24     	; 0x5ee <__EEPROM_REGION_LENGTH__+0x1ee>
				dispText(0x00, true, "ARMED");
 5d6:	45 e0       	ldi	r20, 0x05	; 5
 5d8:	51 e0       	ldi	r21, 0x01	; 1
 5da:	61 e0       	ldi	r22, 0x01	; 1
 5dc:	80 e0       	ldi	r24, 0x00	; 0
 5de:	0e 94 f0 00 	call	0x1e0	; 0x1e0 <_Z8dispTexthbPKc>
				dispText(0x40, false, "CODE: CB");
 5e2:	4c e3       	ldi	r20, 0x3C	; 60
 5e4:	51 e0       	ldi	r21, 0x01	; 1
 5e6:	60 e0       	ldi	r22, 0x00	; 0
 5e8:	80 e4       	ldi	r24, 0x40	; 64
 5ea:	0e 94 f0 00 	call	0x1e0	; 0x1e0 <_Z8dispTexthbPKc>
			}

			if (falling_edges & (1 << PINB0)) {
 5ee:	80 91 75 01 	lds	r24, 0x0175	; 0x800175 <falling_edges>
 5f2:	80 ff       	sbrs	r24, 0
 5f4:	0a c0       	rjmp	.+20     	; 0x60a <__EEPROM_REGION_LENGTH__+0x20a>
				dispText(0x48, false, "A");
 5f6:	4b e1       	ldi	r20, 0x1B	; 27
 5f8:	51 e0       	ldi	r21, 0x01	; 1
 5fa:	60 e0       	ldi	r22, 0x00	; 0
 5fc:	88 e4       	ldi	r24, 0x48	; 72
 5fe:	0e 94 f0 00 	call	0x1e0	; 0x1e0 <_Z8dispTexthbPKc>
				state = PASS_CBA;
 602:	89 e0       	ldi	r24, 0x09	; 9
 604:	80 93 64 01 	sts	0x0164, r24	; 0x800164 <state>
 608:	5c c0       	rjmp	.+184    	; 0x6c2 <__EEPROM_REGION_LENGTH__+0x2c2>
			} else if (falling_edges & ((1 << PINB1) | (1 << PINB2))) {
 60a:	80 91 75 01 	lds	r24, 0x0175	; 0x800175 <falling_edges>
 60e:	86 70       	andi	r24, 0x06	; 6
 610:	21 f0       	breq	.+8      	; 0x61a <__EEPROM_REGION_LENGTH__+0x21a>
				state = ALARM;
 612:	8a e0       	ldi	r24, 0x0A	; 10
 614:	80 93 64 01 	sts	0x0164, r24	; 0x800164 <state>
 618:	54 c0       	rjmp	.+168    	; 0x6c2 <__EEPROM_REGION_LENGTH__+0x2c2>
			} else {		
				state = PASS_CB;
 61a:	88 e0       	ldi	r24, 0x08	; 8
 61c:	80 93 64 01 	sts	0x0164, r24	; 0x800164 <state>
 620:	50 c0       	rjmp	.+160    	; 0x6c2 <__EEPROM_REGION_LENGTH__+0x2c2>
			}
			break;
		}
		case PASS_CBA: {
			if (first) {
 622:	80 91 62 01 	lds	r24, 0x0162	; 0x800162 <first>
 626:	88 23       	and	r24, r24
 628:	61 f0       	breq	.+24     	; 0x642 <__EEPROM_REGION_LENGTH__+0x242>
				dispText(0x00, true, "ARMED");
 62a:	45 e0       	ldi	r20, 0x05	; 5
 62c:	51 e0       	ldi	r21, 0x01	; 1
 62e:	61 e0       	ldi	r22, 0x01	; 1
 630:	80 e0       	ldi	r24, 0x00	; 0
 632:	0e 94 f0 00 	call	0x1e0	; 0x1e0 <_Z8dispTexthbPKc>
				dispText(0x40, false, "CODE: CBA");
 636:	45 e4       	ldi	r20, 0x45	; 69
 638:	51 e0       	ldi	r21, 0x01	; 1
 63a:	60 e0       	ldi	r22, 0x00	; 0
 63c:	80 e4       	ldi	r24, 0x40	; 64
 63e:	0e 94 f0 00 	call	0x1e0	; 0x1e0 <_Z8dispTexthbPKc>
			}

			blink_red = false;
 642:	10 92 65 01 	sts	0x0165, r1	; 0x800165 <blink_red>
			count = 0;
 646:	10 92 67 01 	sts	0x0167, r1	; 0x800167 <count+0x1>
 64a:	10 92 66 01 	sts	0x0166, r1	; 0x800166 <count>
			PORTB &= ~(1 << PINB3); // turning off the alarm
 64e:	85 b1       	in	r24, 0x05	; 5
 650:	87 7f       	andi	r24, 0xF7	; 247
 652:	85 b9       	out	0x05, r24	; 5
			PORTB |= (1 << PINB4);
 654:	85 b1       	in	r24, 0x05	; 5
 656:	80 61       	ori	r24, 0x10	; 16
 658:	85 b9       	out	0x05, r24	; 5
			state = UNLOCK;
 65a:	8b e0       	ldi	r24, 0x0B	; 11
 65c:	80 93 64 01 	sts	0x0164, r24	; 0x800164 <state>
			break;
 660:	30 c0       	rjmp	.+96     	; 0x6c2 <__EEPROM_REGION_LENGTH__+0x2c2>
		}
		case ALARM: {
			PORTB |= (1 << PINB3); // turning on the alarm
 662:	85 b1       	in	r24, 0x05	; 5
 664:	88 60       	ori	r24, 0x08	; 8
 666:	85 b9       	out	0x05, r24	; 5
			blink_red = true;
 668:	81 e0       	ldi	r24, 0x01	; 1
 66a:	80 93 65 01 	sts	0x0165, r24	; 0x800165 <blink_red>
			state = ARMED;
 66e:	86 e0       	ldi	r24, 0x06	; 6
 670:	80 93 64 01 	sts	0x0164, r24	; 0x800164 <state>
			break;
 674:	26 c0       	rjmp	.+76     	; 0x6c2 <__EEPROM_REGION_LENGTH__+0x2c2>
		}
		case UNLOCK: {
			dispText(0x00, first, "UNLOCKING...");
 676:	4f e4       	ldi	r20, 0x4F	; 79
 678:	51 e0       	ldi	r21, 0x01	; 1
 67a:	60 91 62 01 	lds	r22, 0x0162	; 0x800162 <first>
 67e:	80 e0       	ldi	r24, 0x00	; 0
 680:	0e 94 f0 00 	call	0x1e0	; 0x1e0 <_Z8dispTexthbPKc>
			stepperDirection = -1;
 684:	8f ef       	ldi	r24, 0xFF	; 255
 686:	80 93 6a 01 	sts	0x016A, r24	; 0x80016a <stepperDirection>
			for (uint16_t i = 0; i < 512; i++) {
 68a:	00 e0       	ldi	r16, 0x00	; 0
 68c:	10 e0       	ldi	r17, 0x00	; 0
 68e:	01 15       	cp	r16, r1
 690:	92 e0       	ldi	r25, 0x02	; 2
 692:	19 07       	cpc	r17, r25
 694:	58 f4       	brcc	.+22     	; 0x6ac <__EEPROM_REGION_LENGTH__+0x2ac>
 696:	8f e3       	ldi	r24, 0x3F	; 63
 698:	9c e9       	ldi	r25, 0x9C	; 156
 69a:	01 97       	sbiw	r24, 0x01	; 1
 69c:	f1 f7       	brne	.-4      	; 0x69a <__EEPROM_REGION_LENGTH__+0x29a>
 69e:	00 c0       	rjmp	.+0      	; 0x6a0 <__EEPROM_REGION_LENGTH__+0x2a0>
 6a0:	00 00       	nop
				_delay_ms(10);
				stepperStateMachine();
 6a2:	0e 94 13 01 	call	0x226	; 0x226 <_Z19stepperStateMachinev>
			break;
		}
		case UNLOCK: {
			dispText(0x00, first, "UNLOCKING...");
			stepperDirection = -1;
			for (uint16_t i = 0; i < 512; i++) {
 6a6:	0f 5f       	subi	r16, 0xFF	; 255
 6a8:	1f 4f       	sbci	r17, 0xFF	; 255
 6aa:	f1 cf       	rjmp	.-30     	; 0x68e <__EEPROM_REGION_LENGTH__+0x28e>
				_delay_ms(10);
				stepperStateMachine();
			}
			PORTD &= ~((1 << PIND4) | (1 << PIND5) | (1 << PIND6) | (1 << PIND7));
 6ac:	8b b1       	in	r24, 0x0b	; 11
 6ae:	8f 70       	andi	r24, 0x0F	; 15
 6b0:	8b b9       	out	0x0b, r24	; 11
			PORTB &= ~(1 << PINB4);
 6b2:	85 b1       	in	r24, 0x05	; 5
 6b4:	8f 7e       	andi	r24, 0xEF	; 239
 6b6:	85 b9       	out	0x05, r24	; 5
			PORTB |= 1 << PINB5;
 6b8:	85 b1       	in	r24, 0x05	; 5
 6ba:	80 62       	ori	r24, 0x20	; 32
 6bc:	85 b9       	out	0x05, r24	; 5
			state = DISSARMED;
 6be:	10 92 64 01 	sts	0x0164, r1	; 0x800164 <state>
			break;
		
		}
	}
	
	if (blink_red) {
 6c2:	80 91 65 01 	lds	r24, 0x0165	; 0x800165 <blink_red>
 6c6:	88 23       	and	r24, r24
 6c8:	c1 f0       	breq	.+48     	; 0x6fa <__EEPROM_REGION_LENGTH__+0x2fa>
		if (count >= 250) {
 6ca:	80 91 66 01 	lds	r24, 0x0166	; 0x800166 <count>
 6ce:	90 91 67 01 	lds	r25, 0x0167	; 0x800167 <count+0x1>
 6d2:	8a 3f       	cpi	r24, 0xFA	; 250
 6d4:	91 05       	cpc	r25, r1
 6d6:	40 f0       	brcs	.+16     	; 0x6e8 <__EEPROM_REGION_LENGTH__+0x2e8>
			PORTB ^= (1 << PINB4);
 6d8:	95 b1       	in	r25, 0x05	; 5
 6da:	80 e1       	ldi	r24, 0x10	; 16
 6dc:	89 27       	eor	r24, r25
 6de:	85 b9       	out	0x05, r24	; 5
			count = 0;
 6e0:	10 92 67 01 	sts	0x0167, r1	; 0x800167 <count+0x1>
 6e4:	10 92 66 01 	sts	0x0166, r1	; 0x800166 <count>
		}
		count++;
 6e8:	80 91 66 01 	lds	r24, 0x0166	; 0x800166 <count>
 6ec:	90 91 67 01 	lds	r25, 0x0167	; 0x800167 <count+0x1>
 6f0:	01 96       	adiw	r24, 0x01	; 1
 6f2:	90 93 67 01 	sts	0x0167, r25	; 0x800167 <count+0x1>
 6f6:	80 93 66 01 	sts	0x0166, r24	; 0x800166 <count>
	}
	
}
 6fa:	0f 90       	pop	r0
 6fc:	0f 90       	pop	r0
 6fe:	0f 90       	pop	r0
 700:	df 91       	pop	r29
 702:	cf 91       	pop	r28
 704:	1f 91       	pop	r17
 706:	0f 91       	pop	r16
 708:	08 95       	ret

0000070a <__vector_11>:

ISR(TIMER1_COMPA_vect) {
 70a:	1f 92       	push	r1
 70c:	0f 92       	push	r0
 70e:	0f b6       	in	r0, 0x3f	; 63
 710:	0f 92       	push	r0
 712:	11 24       	eor	r1, r1
 714:	2f 93       	push	r18
 716:	3f 93       	push	r19
 718:	4f 93       	push	r20
 71a:	5f 93       	push	r21
 71c:	6f 93       	push	r22
 71e:	7f 93       	push	r23
 720:	8f 93       	push	r24
 722:	9f 93       	push	r25
 724:	af 93       	push	r26
 726:	bf 93       	push	r27
 728:	ef 93       	push	r30
 72a:	ff 93       	push	r31
	//uint8_t falling = softwareDebounce(PINB & ((1 << PINB0) | (1 << PINB1) | (1 << PINB2)));
	//stateMachine(falling);
    uint8_t falling = softwareDebounce(PINB & ((1 << PINB0) | (1 << PINB1) | (1 << PINB2)));
 72c:	83 b1       	in	r24, 0x03	; 3
 72e:	87 70       	andi	r24, 0x07	; 7
 730:	0e 94 5f 00 	call	0xbe	; 0xbe <_Z16softwareDebounceh>
	stateMachine(falling);
 734:	0e 94 64 01 	call	0x2c8	; 0x2c8 <_Z12stateMachineh>
}
 738:	ff 91       	pop	r31
 73a:	ef 91       	pop	r30
 73c:	bf 91       	pop	r27
 73e:	af 91       	pop	r26
 740:	9f 91       	pop	r25
 742:	8f 91       	pop	r24
 744:	7f 91       	pop	r23
 746:	6f 91       	pop	r22
 748:	5f 91       	pop	r21
 74a:	4f 91       	pop	r20
 74c:	3f 91       	pop	r19
 74e:	2f 91       	pop	r18
 750:	0f 90       	pop	r0
 752:	0f be       	out	0x3f, r0	; 63
 754:	0f 90       	pop	r0
 756:	1f 90       	pop	r1
 758:	18 95       	reti

0000075a <__vector_2>:


/*---------- MODULE E FUNCTIONS ----------*/
ISR(INT1_vect) {
 75a:	1f 92       	push	r1
 75c:	0f 92       	push	r0
 75e:	0f b6       	in	r0, 0x3f	; 63
 760:	0f 92       	push	r0
 762:	11 24       	eor	r1, r1
 764:	8f 93       	push	r24
	if (UCSR0A & (1 << UDRE0)) { //check if transmit buffer is empty
 766:	80 91 c0 00 	lds	r24, 0x00C0	; 0x8000c0 <__TEXT_REGION_LENGTH__+0x7f80c0>
 76a:	85 ff       	sbrs	r24, 5
 76c:	03 c0       	rjmp	.+6      	; 0x774 <__vector_2+0x1a>
		UDR0 = 0b11110000; //send code
 76e:	80 ef       	ldi	r24, 0xF0	; 240
 770:	80 93 c6 00 	sts	0x00C6, r24	; 0x8000c6 <__TEXT_REGION_LENGTH__+0x7f80c6>
		//UDR0 = 0b01010100; //send code
		//dispText(0x00, true, "TEST TEST");
		//_delay_ms(2000);
	}
	
}
 774:	8f 91       	pop	r24
 776:	0f 90       	pop	r0
 778:	0f be       	out	0x3f, r0	; 63
 77a:	0f 90       	pop	r0
 77c:	1f 90       	pop	r1
 77e:	18 95       	reti

00000780 <__vector_20>:

ISR(USART_TX_vect) {
 780:	1f 92       	push	r1
 782:	0f 92       	push	r0
 784:	0f b6       	in	r0, 0x3f	; 63
 786:	0f 92       	push	r0
 788:	11 24       	eor	r1, r1
 78a:	8f 93       	push	r24
	//change mode to receiver
	UCSR0B = (0 << TXCIE0)|(0 << TXEN0)|(1 << RXCIE0)|(1 << RXEN0); //enabling reciever mode and interrupt
 78c:	80 e9       	ldi	r24, 0x90	; 144
 78e:	80 93 c1 00 	sts	0x00C1, r24	; 0x8000c1 <__TEXT_REGION_LENGTH__+0x7f80c1>
}
 792:	8f 91       	pop	r24
 794:	0f 90       	pop	r0
 796:	0f be       	out	0x3f, r0	; 63
 798:	0f 90       	pop	r0
 79a:	1f 90       	pop	r1
 79c:	18 95       	reti

0000079e <__vector_18>:

ISR(USART_RX_vect) {
 79e:	1f 92       	push	r1
 7a0:	0f 92       	push	r0
 7a2:	0f b6       	in	r0, 0x3f	; 63
 7a4:	0f 92       	push	r0
 7a6:	11 24       	eor	r1, r1
 7a8:	2f 93       	push	r18
 7aa:	3f 93       	push	r19
 7ac:	4f 93       	push	r20
 7ae:	5f 93       	push	r21
 7b0:	6f 93       	push	r22
 7b2:	7f 93       	push	r23
 7b4:	8f 93       	push	r24
 7b6:	9f 93       	push	r25
 7b8:	af 93       	push	r26
 7ba:	bf 93       	push	r27
 7bc:	ef 93       	push	r30
 7be:	ff 93       	push	r31
	uint8_t recievedData = UDR0;
 7c0:	80 91 c6 00 	lds	r24, 0x00C6	; 0x8000c6 <__TEXT_REGION_LENGTH__+0x7f80c6>
	if (recievedData == 0b00001111) {
 7c4:	8f 30       	cpi	r24, 0x0F	; 15
 7c6:	a9 f4       	brne	.+42     	; 0x7f2 <__vector_18+0x54>
		UCSR0B = (1 << TXCIE0)|(1 << TXEN0)|(0 << RXCIE0)|(0 << RXEN0); //enabling transmitter mode, and interrupt
 7c8:	88 e4       	ldi	r24, 0x48	; 72
 7ca:	80 93 c1 00 	sts	0x00C1, r24	; 0x8000c1 <__TEXT_REGION_LENGTH__+0x7f80c1>
		dispText(0x00, true, "OK");
 7ce:	4c e5       	ldi	r20, 0x5C	; 92
 7d0:	51 e0       	ldi	r21, 0x01	; 1
 7d2:	61 e0       	ldi	r22, 0x01	; 1
 7d4:	80 e0       	ldi	r24, 0x00	; 0
 7d6:	0e 94 f0 00 	call	0x1e0	; 0x1e0 <_Z8dispTexthbPKc>
 7da:	2f ef       	ldi	r18, 0xFF	; 255
 7dc:	87 ea       	ldi	r24, 0xA7	; 167
 7de:	91 e6       	ldi	r25, 0x61	; 97
 7e0:	21 50       	subi	r18, 0x01	; 1
 7e2:	80 40       	sbci	r24, 0x00	; 0
 7e4:	90 40       	sbci	r25, 0x00	; 0
 7e6:	e1 f7       	brne	.-8      	; 0x7e0 <__vector_18+0x42>
 7e8:	00 c0       	rjmp	.+0      	; 0x7ea <__vector_18+0x4c>
 7ea:	00 00       	nop
		_delay_ms(2000);
		//INSERT CURRENT STATUS CODE HERE
		first_override = true;
 7ec:	81 e0       	ldi	r24, 0x01	; 1
 7ee:	80 93 61 01 	sts	0x0161, r24	; 0x800161 <first_override>
	}
}
 7f2:	ff 91       	pop	r31
 7f4:	ef 91       	pop	r30
 7f6:	bf 91       	pop	r27
 7f8:	af 91       	pop	r26
 7fa:	9f 91       	pop	r25
 7fc:	8f 91       	pop	r24
 7fe:	7f 91       	pop	r23
 800:	6f 91       	pop	r22
 802:	5f 91       	pop	r21
 804:	4f 91       	pop	r20
 806:	3f 91       	pop	r19
 808:	2f 91       	pop	r18
 80a:	0f 90       	pop	r0
 80c:	0f be       	out	0x3f, r0	; 63
 80e:	0f 90       	pop	r0
 810:	1f 90       	pop	r1
 812:	18 95       	reti

00000814 <main>:


int main(void)
{
	// Data direction register declaration
	DDRD = (1 << PIND4) | (1 << PIND5) | (1 << PIND6) | (1 << PIND7); // PIND4-7 stepper motor output GPIO
 814:	80 ef       	ldi	r24, 0xF0	; 240
 816:	8a b9       	out	0x0a, r24	; 10
	DDRB = (0 << PINB0) | (0 << PINB1) | (0 << PINB2) | (1 << PINB3) | (1 << PINB4) | (1 << PINB5); // PINB0-2 button input GPIO, PINB3 active buzzer output GPIO, PINB4-5 LED output GPIO
 818:	88 e3       	ldi	r24, 0x38	; 56
 81a:	84 b9       	out	0x04, r24	; 4
	
	// LCD code
	//Configure Bit Rate (TWBR and TWSR)
	TWBR = 18; //TWBR=18
 81c:	82 e1       	ldi	r24, 0x12	; 18
 81e:	80 93 b8 00 	sts	0x00B8, r24	; 0x8000b8 <__TEXT_REGION_LENGTH__+0x7f80b8>
	TWSR = (0<<TWPS1)|(1<<TWPS0); //PRESCALER = 1
 822:	c1 e0       	ldi	r28, 0x01	; 1
 824:	c0 93 b9 00 	sts	0x00B9, r28	; 0x8000b9 <__TEXT_REGION_LENGTH__+0x7f80b9>
	//Configure TWI Interface (TWCR)
	TWCR = (1<<TWEN);
 828:	84 e0       	ldi	r24, 0x04	; 4
 82a:	80 93 bc 00 	sts	0x00BC, r24	; 0x8000bc <__TEXT_REGION_LENGTH__+0x7f80bc>
	//INITIALIZE LCD
	TWI(LCD_ADDRESS,0x30|LCD_DISABLE|LCD_WRITE|LCD_BL); // (data length of 8, number of lines=2, 5x8 digit space, load data)
 82e:	6c e3       	ldi	r22, 0x3C	; 60
 830:	8e e4       	ldi	r24, 0x4E	; 78
 832:	0e 94 93 00 	call	0x126	; 0x126 <_Z3TWIhh>
	TWI(LCD_ADDRESS,0x30|LCD_ENABLE|LCD_WRITE|LCD_BL); // (clock in data)
 836:	68 e3       	ldi	r22, 0x38	; 56
 838:	8e e4       	ldi	r24, 0x4E	; 78
 83a:	0e 94 93 00 	call	0x126	; 0x126 <_Z3TWIhh>
 83e:	8f e5       	ldi	r24, 0x5F	; 95
 840:	9a ee       	ldi	r25, 0xEA	; 234
 842:	01 97       	sbiw	r24, 0x01	; 1
 844:	f1 f7       	brne	.-4      	; 0x842 <main+0x2e>
 846:	00 c0       	rjmp	.+0      	; 0x848 <main+0x34>
 848:	00 00       	nop
	_delay_ms(15);
	TWI(LCD_ADDRESS,0x30|LCD_DISABLE|LCD_WRITE|LCD_BL); // (data length of 8, number of lines=2, 5x8 digit space, load data)
 84a:	6c e3       	ldi	r22, 0x3C	; 60
 84c:	8e e4       	ldi	r24, 0x4E	; 78
 84e:	0e 94 93 00 	call	0x126	; 0x126 <_Z3TWIhh>
	TWI(LCD_ADDRESS,0x30|LCD_ENABLE|LCD_WRITE|LCD_BL); // (clock in data)
 852:	68 e3       	ldi	r22, 0x38	; 56
 854:	8e e4       	ldi	r24, 0x4E	; 78
 856:	0e 94 93 00 	call	0x126	; 0x126 <_Z3TWIhh>
 85a:	8f e0       	ldi	r24, 0x0F	; 15
 85c:	90 e4       	ldi	r25, 0x40	; 64
 85e:	01 97       	sbiw	r24, 0x01	; 1
 860:	f1 f7       	brne	.-4      	; 0x85e <main+0x4a>
 862:	00 c0       	rjmp	.+0      	; 0x864 <main+0x50>
 864:	00 00       	nop
	_delay_ms(4.1);
	TWI(LCD_ADDRESS,0x30|LCD_DISABLE|LCD_WRITE|LCD_BL); // (data length of 8, number of lines=2, 5x8 digit space, load data)
 866:	6c e3       	ldi	r22, 0x3C	; 60
 868:	8e e4       	ldi	r24, 0x4E	; 78
 86a:	0e 94 93 00 	call	0x126	; 0x126 <_Z3TWIhh>
	TWI(LCD_ADDRESS,0x30|LCD_ENABLE|LCD_WRITE|LCD_BL); // (clock in data)
 86e:	68 e3       	ldi	r22, 0x38	; 56
 870:	8e e4       	ldi	r24, 0x4E	; 78
 872:	0e 94 93 00 	call	0x126	; 0x126 <_Z3TWIhh>
 876:	8f e0       	ldi	r24, 0x0F	; 15
 878:	90 e4       	ldi	r25, 0x40	; 64
 87a:	01 97       	sbiw	r24, 0x01	; 1
 87c:	f1 f7       	brne	.-4      	; 0x87a <main+0x66>
 87e:	00 c0       	rjmp	.+0      	; 0x880 <main+0x6c>
 880:	00 00       	nop
	_delay_ms(4.1);
	TWI(LCD_ADDRESS,0x20|LCD_DISABLE|LCD_WRITE|LCD_BL); // (data length of 4, number of lines=2, 5x8 digit space, load data)
 882:	6c e2       	ldi	r22, 0x2C	; 44
 884:	8e e4       	ldi	r24, 0x4E	; 78
 886:	0e 94 93 00 	call	0x126	; 0x126 <_Z3TWIhh>
	TWI(LCD_ADDRESS,0x20|LCD_ENABLE|LCD_WRITE|LCD_BL); // (clock in data)
 88a:	68 e2       	ldi	r22, 0x28	; 40
 88c:	8e e4       	ldi	r24, 0x4E	; 78
 88e:	0e 94 93 00 	call	0x126	; 0x126 <_Z3TWIhh>
	TWI(LCD_ADDRESS,0x20|LCD_DISABLE|LCD_WRITE|LCD_BL); // (load data)
 892:	6c e2       	ldi	r22, 0x2C	; 44
 894:	8e e4       	ldi	r24, 0x4E	; 78
 896:	0e 94 93 00 	call	0x126	; 0x126 <_Z3TWIhh>
	TWI(LCD_ADDRESS,0x20|LCD_ENABLE|LCD_WRITE|LCD_BL); // (clock in data)
 89a:	68 e2       	ldi	r22, 0x28	; 40
 89c:	8e e4       	ldi	r24, 0x4E	; 78
 89e:	0e 94 93 00 	call	0x126	; 0x126 <_Z3TWIhh>
	//HOME CURSOR
	TWI(LCD_ADDRESS,0x80|LCD_DISABLE|LCD_WRITE|LCD_BL); // (load data)
 8a2:	6c e8       	ldi	r22, 0x8C	; 140
 8a4:	8e e4       	ldi	r24, 0x4E	; 78
 8a6:	0e 94 93 00 	call	0x126	; 0x126 <_Z3TWIhh>
	TWI(LCD_ADDRESS,0x80|LCD_ENABLE|LCD_WRITE|LCD_BL); // (clock in data)
 8aa:	68 e8       	ldi	r22, 0x88	; 136
 8ac:	8e e4       	ldi	r24, 0x4E	; 78
 8ae:	0e 94 93 00 	call	0x126	; 0x126 <_Z3TWIhh>
	//CLEAR DISPLAY AND WAIT TO FINSIH
	LCD_Command(CLEAR_DISPLAY);
 8b2:	81 e0       	ldi	r24, 0x01	; 1
 8b4:	0e 94 d0 00 	call	0x1a0	; 0x1a0 <_Z11LCD_Commandh>
 8b8:	8f e3       	ldi	r24, 0x3F	; 63
 8ba:	9f e1       	ldi	r25, 0x1F	; 31
 8bc:	01 97       	sbiw	r24, 0x01	; 1
 8be:	f1 f7       	brne	.-4      	; 0x8bc <main+0xa8>
 8c0:	00 c0       	rjmp	.+0      	; 0x8c2 <main+0xae>
 8c2:	00 00       	nop
	_delay_ms(2);
	LCD_Command(0x0C); //Display no cursor
 8c4:	8c e0       	ldi	r24, 0x0C	; 12
 8c6:	0e 94 d0 00 	call	0x1a0	; 0x1a0 <_Z11LCD_Commandh>
	LCD_Command(0x06); //Automatic Increment
 8ca:	86 e0       	ldi	r24, 0x06	; 6
 8cc:	0e 94 d0 00 	call	0x1a0	; 0x1a0 <_Z11LCD_Commandh>
	
	// LCD initial message
	dispText(0x00, true, "DISSARMED");
 8d0:	41 e0       	ldi	r20, 0x01	; 1
 8d2:	51 e0       	ldi	r21, 0x01	; 1
 8d4:	61 e0       	ldi	r22, 0x01	; 1
 8d6:	80 e0       	ldi	r24, 0x00	; 0
 8d8:	0e 94 f0 00 	call	0x1e0	; 0x1e0 <_Z8dispTexthbPKc>
	dispText(0x40, false, "CODE:    ");
 8dc:	4b e0       	ldi	r20, 0x0B	; 11
 8de:	51 e0       	ldi	r21, 0x01	; 1
 8e0:	60 e0       	ldi	r22, 0x00	; 0
 8e2:	80 e4       	ldi	r24, 0x40	; 64
 8e4:	0e 94 f0 00 	call	0x1e0	; 0x1e0 <_Z8dispTexthbPKc>
	PORTB |= (1 << PINB5);
 8e8:	85 b1       	in	r24, 0x05	; 5
 8ea:	80 62       	ori	r24, 0x20	; 32
 8ec:	85 b9       	out	0x05, r24	; 5

	// Timer 1 Initialization
	//Configure Timer 1
	TCCR1A = (0 << WGM11) | (0 << WGM10); // Configuring for CTC mode
 8ee:	10 92 80 00 	sts	0x0080, r1	; 0x800080 <__TEXT_REGION_LENGTH__+0x7f8080>
	TCCR1B = (0 << WGM13) | (1 << WGM12) | (0 << CS12) | (0 << CS11) | (1 << CS10); // Prescaler of 1
 8f2:	89 e0       	ldi	r24, 0x09	; 9
 8f4:	80 93 81 00 	sts	0x0081, r24	; 0x800081 <__TEXT_REGION_LENGTH__+0x7f8081>
	TIMSK1 = (1 << OCIE1A);
 8f8:	82 e0       	ldi	r24, 0x02	; 2
 8fa:	80 93 6f 00 	sts	0x006F, r24	; 0x80006f <__TEXT_REGION_LENGTH__+0x7f806f>
	OCR1A = 15999; // 1 ms
 8fe:	8f e7       	ldi	r24, 0x7F	; 127
 900:	9e e3       	ldi	r25, 0x3E	; 62
 902:	90 93 89 00 	sts	0x0089, r25	; 0x800089 <__TEXT_REGION_LENGTH__+0x7f8089>
 906:	80 93 88 00 	sts	0x0088, r24	; 0x800088 <__TEXT_REGION_LENGTH__+0x7f8088>
	
	/*---------- MODULE E SETUP CODE ----------*/
	//IO config
	DDRD &= ~(1 << PIND3);
 90a:	8a b1       	in	r24, 0x0a	; 10
 90c:	87 7f       	andi	r24, 0xF7	; 247
 90e:	8a b9       	out	0x0a, r24	; 10
	
	//USART config
	UCSR0A = (0 << U2X0)|(1 << MPCM0); //standard data prescaler, enable multiprocessor communication mode
 910:	e0 ec       	ldi	r30, 0xC0	; 192
 912:	f0 e0       	ldi	r31, 0x00	; 0
 914:	c0 83       	st	Z, r28
	UCSR0B = (1 << TXCIE0)|(1 << TXEN0)|(0 << RXCIE0)|(0 << RXEN0); //enabling transmitter mode, and interrupt
 916:	88 e4       	ldi	r24, 0x48	; 72
 918:	80 93 c1 00 	sts	0x00C1, r24	; 0x8000c1 <__TEXT_REGION_LENGTH__+0x7f80c1>
	UCSR0A = (1 << UCSZ01)|(1 << UCSZ00); //setting frame size to 8 bits
 91c:	86 e0       	ldi	r24, 0x06	; 6
 91e:	80 83       	st	Z, r24
	UBRR0 = 7; //setting baud rate to 250k
 920:	87 e0       	ldi	r24, 0x07	; 7
 922:	90 e0       	ldi	r25, 0x00	; 0
 924:	90 93 c5 00 	sts	0x00C5, r25	; 0x8000c5 <__TEXT_REGION_LENGTH__+0x7f80c5>
 928:	80 93 c4 00 	sts	0x00C4, r24	; 0x8000c4 <__TEXT_REGION_LENGTH__+0x7f80c4>

	//external interrupt 1 config
	EIMSK |= (1 << INT1); //enabling int 1
 92c:	8d b3       	in	r24, 0x1d	; 29
 92e:	82 60       	ori	r24, 0x02	; 2
 930:	8d bb       	out	0x1d, r24	; 29
	EICRA |= (1 << ISC11); //setting trigger on falling edge
 932:	e9 e6       	ldi	r30, 0x69	; 105
 934:	f0 e0       	ldi	r31, 0x00	; 0
 936:	80 81       	ld	r24, Z
 938:	88 60       	ori	r24, 0x08	; 8
 93a:	80 83       	st	Z, r24
	EICRA &= ~(1 << ISC10);
 93c:	80 81       	ld	r24, Z
 93e:	8b 7f       	andi	r24, 0xFB	; 251
 940:	80 83       	st	Z, r24
	/*---------- END MODULE E SETUP CODE ----------*/
	
	sei();
 942:	78 94       	sei
 944:	ff cf       	rjmp	.-2      	; 0x944 <__stack+0x45>

00000946 <__tablejump2__>:
 946:	ee 0f       	add	r30, r30
 948:	ff 1f       	adc	r31, r31
 94a:	05 90       	lpm	r0, Z+
 94c:	f4 91       	lpm	r31, Z
 94e:	e0 2d       	mov	r30, r0
 950:	09 94       	ijmp

00000952 <_exit>:
 952:	f8 94       	cli

00000954 <__stop_program>:
 954:	ff cf       	rjmp	.-2      	; 0x954 <__stop_program>
